target datalayout = "e-m:e-p270:32:32-p271:32:32-p272:64:64-i64:64-i128:128-f80:128-n8:16:32:64-S128"
target triple = "x86_64-pc-linux-gnu"

; Function Attrs: nounwind uwtable
define i32 @minimalSwapAndFlipIVar_superFast_all(ptr noundef %0, i32 noundef %1, i32 noundef %2, ptr noundef %3, ptr noundef %4, ptr noundef %5) #0 {
  %7 = alloca i32, align 4
  %8 = alloca ptr, align 8
  %9 = alloca i32, align 4
  %10 = alloca i32, align 4
  %11 = alloca ptr, align 8
  %12 = alloca ptr, align 8
  %13 = alloca ptr, align 8
  %14 = alloca i32, align 4
  %15 = alloca [1024 x i64], align 16
  %16 = alloca i32, align 4
  %17 = alloca i32, align 4
  store ptr %0, ptr %8, align 8, !tbaa !3
  store i32 %1, ptr %9, align 4, !tbaa !8
  store i32 %2, ptr %10, align 4, !tbaa !8
  store ptr %3, ptr %11, align 8, !tbaa !12
  store ptr %4, ptr %12, align 8, !tbaa !10
  store ptr %5, ptr %13, align 8, !tbaa !12
  call void @llvm.lifetime.start.p0(i64 4, ptr %14) #7
  call void @llvm.lifetime.start.p0(i64 8192, ptr %15) #7
  call void @llvm.lifetime.start.p0(i64 4, ptr %16) #7
  %18 = load ptr, ptr %11, align 8, !tbaa !12
  %19 = getelementptr inbounds i32, ptr %18, i64 0
  %20 = load i32, ptr %19, align 4, !tbaa !8
  store i32 %20, ptr %16, align 4, !tbaa !8
  %21 = getelementptr inbounds [1024 x i64], ptr %15, i64 0, i64 0
  %22 = load ptr, ptr %8, align 8, !tbaa !3
  %23 = load i32, ptr %10, align 4, !tbaa !8
  %24 = sext i32 %23 to i64
  %25 = mul i64 %24, 8
  call void @llvm.memcpy.p0.p0.i64(ptr align 16 %21, ptr align 8 %22, i64 %25, i1 false)
  store i32 0, ptr %14, align 4, !tbaa !8
  br label %26

26:                                               ; preds = %52, %6
  %27 = load i32, ptr %14, align 4, !tbaa !8
  %28 = icmp slt i32 %27, 5
  br i1 %28, label %29, label %55

29:                                               ; preds = %26
  %30 = load i32, ptr %16, align 4, !tbaa !8
  %31 = load ptr, ptr %11, align 8, !tbaa !12
  %32 = load i32, ptr %14, align 4, !tbaa !8
  %33 = add nsw i32 %32, 1
  %34 = sext i32 %33 to i64
  %35 = getelementptr inbounds i32, ptr %31, i64 %34
  %36 = load i32, ptr %35, align 4, !tbaa !8
  %37 = icmp eq i32 %30, %36
  br i1 %37, label %38, label %44

38:                                               ; preds = %29
  %39 = load ptr, ptr %8, align 8, !tbaa !3
  %40 = load i32, ptr %14, align 4, !tbaa !8
  %41 = load i32, ptr %10, align 4, !tbaa !8
  %42 = load ptr, ptr %12, align 8, !tbaa !10
  %43 = load ptr, ptr %13, align 8, !tbaa !12
  call void @minimalSwapAndFlipIVar_superFast_lessThen5(ptr noundef %39, i32 noundef %40, i32 noundef %41, ptr noundef %42, ptr noundef %43)
  br label %51

44:                                               ; preds = %29
  %45 = load ptr, ptr %11, align 8, !tbaa !12
  %46 = load i32, ptr %14, align 4, !tbaa !8
  %47 = add nsw i32 %46, 1
  %48 = sext i32 %47 to i64
  %49 = getelementptr inbounds i32, ptr %45, i64 %48
  %50 = load i32, ptr %49, align 4, !tbaa !8
  store i32 %50, ptr %16, align 4, !tbaa !8
  br label %52

51:                                               ; preds = %38
  br label %52

52:                                               ; preds = %51, %44
  %53 = load i32, ptr %14, align 4, !tbaa !8
  %54 = add nsw i32 %53, 1
  store i32 %54, ptr %14, align 4, !tbaa !8
  br label %26, !llvm.loop !39

55:                                               ; preds = %26
  %56 = load i32, ptr %16, align 4, !tbaa !8
  %57 = load ptr, ptr %11, align 8, !tbaa !12
  %58 = load i32, ptr %14, align 4, !tbaa !8
  %59 = add nsw i32 %58, 1
  %60 = sext i32 %59 to i64
  %61 = getelementptr inbounds i32, ptr %57, i64 %60
  %62 = load i32, ptr %61, align 4, !tbaa !8
  %63 = icmp eq i32 %56, %62
  br i1 %63, label %64, label %69

64:                                               ; preds = %55
  %65 = load ptr, ptr %8, align 8, !tbaa !3
  %66 = load i32, ptr %10, align 4, !tbaa !8
  %67 = load ptr, ptr %12, align 8, !tbaa !10
  %68 = load ptr, ptr %13, align 8, !tbaa !12
  call void @minimalSwapAndFlipIVar_superFast_iVar5(ptr noundef %65, i32 noundef %66, ptr noundef %67, ptr noundef %68)
  br label %76

69:                                               ; preds = %55
  %70 = load ptr, ptr %11, align 8, !tbaa !12
  %71 = load i32, ptr %14, align 4, !tbaa !8
  %72 = add nsw i32 %71, 1
  %73 = sext i32 %72 to i64
  %74 = getelementptr inbounds i32, ptr %70, i64 %73
  %75 = load i32, ptr %74, align 4, !tbaa !8
  store i32 %75, ptr %16, align 4, !tbaa !8
  br label %76

76:                                               ; preds = %69, %64
  store i32 6, ptr %14, align 4, !tbaa !8
  br label %77

77:                                               ; preds = %105, %76
  %78 = load i32, ptr %14, align 4, !tbaa !8
  %79 = load i32, ptr %9, align 4, !tbaa !8
  %80 = sub nsw i32 %79, 1
  %81 = icmp slt i32 %78, %80
  br i1 %81, label %82, label %108

82:                                               ; preds = %77
  %83 = load i32, ptr %16, align 4, !tbaa !8
  %84 = load ptr, ptr %11, align 8, !tbaa !12
  %85 = load i32, ptr %14, align 4, !tbaa !8
  %86 = add nsw i32 %85, 1
  %87 = sext i32 %86 to i64
  %88 = getelementptr inbounds i32, ptr %84, i64 %87
  %89 = load i32, ptr %88, align 4, !tbaa !8
  %90 = icmp eq i32 %83, %89
  br i1 %90, label %91, label %97

91:                                               ; preds = %82
  %92 = load ptr, ptr %8, align 8, !tbaa !3
  %93 = load i32, ptr %14, align 4, !tbaa !8
  %94 = load i32, ptr %10, align 4, !tbaa !8
  %95 = load ptr, ptr %12, align 8, !tbaa !10
  %96 = load ptr, ptr %13, align 8, !tbaa !12
  call void @minimalSwapAndFlipIVar_superFast_moreThen5(ptr noundef %92, i32 noundef %93, i32 noundef %94, ptr noundef %95, ptr noundef %96)
  br label %104

97:                                               ; preds = %82
  %98 = load ptr, ptr %11, align 8, !tbaa !12
  %99 = load i32, ptr %14, align 4, !tbaa !8
  %100 = add nsw i32 %99, 1
  %101 = sext i32 %100 to i64
  %102 = getelementptr inbounds i32, ptr %98, i64 %101
  %103 = load i32, ptr %102, align 4, !tbaa !8
  store i32 %103, ptr %16, align 4, !tbaa !8
  br label %105

104:                                              ; preds = %91
  br label %105

105:                                              ; preds = %104, %97
  %106 = load i32, ptr %14, align 4, !tbaa !8
  %107 = add nsw i32 %106, 1
  store i32 %107, ptr %14, align 4, !tbaa !8
  br label %77, !llvm.loop !40

108:                                              ; preds = %77
  %109 = load ptr, ptr %8, align 8, !tbaa !3
  %110 = getelementptr inbounds [1024 x i64], ptr %15, i64 0, i64 0
  %111 = load i32, ptr %10, align 4, !tbaa !8
  %112 = sext i32 %111 to i64
  %113 = mul i64 %112, 8
  %114 = call i32 @memcmp(ptr noundef %109, ptr noundef %110, i64 noundef %113) #8
  %115 = icmp eq i32 %114, 0
  br i1 %115, label %116, label %117

116:                                              ; preds = %108
  store i32 0, ptr %7, align 4
  store i32 1, ptr %17, align 4
  br label %118

117:                                              ; preds = %108
  store i32 1, ptr %7, align 4
  store i32 1, ptr %17, align 4
  br label %118

118:                                              ; preds = %117, %116
  call void @llvm.lifetime.end.p0(i64 4, ptr %16) #7
  call void @llvm.lifetime.end.p0(i64 8192, ptr %15) #7
  call void @llvm.lifetime.end.p0(i64 4, ptr %14) #7
  %119 = load i32, ptr %7, align 4
  ret i32 %119
}