; Function Attrs: nounwind uwtable
define range(i32 0, 2) i32 @minimalSwapAndFlipIVar_superFast_all(ptr noundef captures(none) %0, i32 noundef %1, i32 noundef %2, ptr noundef readonly captures(none) %3, ptr noundef %4, ptr noundef captures(none) %5) local_unnamed_addr #0 {
  %7 = alloca [1024 x i64], align 16
  call void @llvm.lifetime.start.p0(i64 8192, ptr nonnull %7) #9
  %8 = load i32, ptr %3, align 4, !tbaa !6
  %9 = sext i32 %2 to i64
  %10 = shl nsw i64 %9, 3
  call void @llvm.memcpy.p0.p0.i64(ptr nonnull align 16 %7, ptr align 8 %0, i64 %10, i1 false)
  br label %11

11:                                               ; preds = %6, %17
  %indvars.iv = phi i64 [ 0, %6 ], [ %indvars.iv.next, %17 ]
  %.046 = phi i32 [ %8, %6 ], [ %.1, %17 ]
  %indvars.iv.next = add nuw nsw i64 %indvars.iv, 1
  %12 = getelementptr inbounds nuw i32, ptr %3, i64 %indvars.iv.next
  %13 = load i32, ptr %12, align 4, !tbaa !6
  %14 = icmp eq i32 %.046, %13
  br i1 %14, label %15, label %17

15:                                               ; preds = %11
  %16 = trunc nuw nsw i64 %indvars.iv to i32
  tail call void @minimalSwapAndFlipIVar_superFast_lessThen5(ptr noundef %0, i32 noundef %16, i32 noundef %2, ptr noundef %4, ptr noundef %5)
  br label %17

17:                                               ; preds = %11, %15
  %.1 = phi i32 [ %.046, %15 ], [ %13, %11 ]
  %exitcond.not = icmp eq i64 %indvars.iv.next, 5
  br i1 %exitcond.not, label %18, label %11, !llvm.loop !32

18:                                               ; preds = %17
  %19 = getelementptr inbounds nuw i8, ptr %3, i64 24
  %20 = load i32, ptr %19, align 4, !tbaa !6
  %21 = icmp eq i32 %.1, %20
  br i1 %21, label %22, label %23

22:                                               ; preds = %18
  tail call void @minimalSwapAndFlipIVar_superFast_iVar5(ptr noundef %0, i32 noundef %2, ptr noundef %4, ptr noundef %5)
  br label %23

23:                                               ; preds = %18, %22
  %.2 = phi i32 [ %.1, %22 ], [ %20, %18 ]
  %24 = icmp sgt i32 %1, 7
  br i1 %24, label %.lr.ph.preheader, label %._crit_edge

.lr.ph.preheader:                                 ; preds = %23
  %25 = add nsw i32 %1, -1
  %wide.trip.count = zext nneg i32 %25 to i64
  br label %.lr.ph

.lr.ph:                                           ; preds = %.lr.ph.preheader, %31
  %indvars.iv50 = phi i64 [ 6, %.lr.ph.preheader ], [ %indvars.iv.next51, %31 ]
  %.348 = phi i32 [ %.2, %.lr.ph.preheader ], [ %.4, %31 ]
  %indvars.iv.next51 = add nuw nsw i64 %indvars.iv50, 1
  %26 = getelementptr inbounds nuw i32, ptr %3, i64 %indvars.iv.next51
  %27 = load i32, ptr %26, align 4, !tbaa !6
  %28 = icmp eq i32 %.348, %27
  br i1 %28, label %29, label %31

29:                                               ; preds = %.lr.ph
  %30 = trunc nuw nsw i64 %indvars.iv50 to i32
  tail call void @minimalSwapAndFlipIVar_superFast_moreThen5(ptr noundef %0, i32 noundef %30, i32 noundef %2, ptr noundef %4, ptr noundef %5)
  br label %31

31:                                               ; preds = %.lr.ph, %29
  %.4 = phi i32 [ %.348, %29 ], [ %27, %.lr.ph ]
  %exitcond53.not = icmp eq i64 %indvars.iv.next51, %wide.trip.count
  br i1 %exitcond53.not, label %._crit_edge, label %.lr.ph, !llvm.loop !33

._crit_edge:                                      ; preds = %31, %23
  %bcmp = call i32 @bcmp(ptr %0, ptr nonnull %7, i64 %10)
  %32 = icmp ne i32 %bcmp, 0
  %. = zext i1 %32 to i32
  call void @llvm.lifetime.end.p0(i64 8192, ptr nonnull %7) #9
  ret i32 %.
}